(dp1
S'comment'
p2
S'TEXT'
p3
sS'songid'
p4
S'REFERENCES songs(id) ON DELETE CASCADE'
p5
sS'userid'
p6
S'INTEGER REFERENCES auth_user(id) ON DELETE CASCADE'
p7
sS'id'
p8
S'INTEGER PRIMARY KEY AUTOINCREMENT'
p9
sS'language'
p10
S'REFERENCES languages(id) ON DELETE CASCADE'
p11
s.