(dp1
S'rating'
p2
S'INTEGER'
p3
sS'songid'
p4
S'REFERENCES songs(id) ON DELETE CASCADE'
p5
sS'userid'
p6
S'REFERENCES auth_user(id) ON DELETE CASCADE'
p7
sS'id'
p8
S'INTEGER PRIMARY KEY AUTOINCREMENT'
p9
s.