(dp1
S'output'
p2
S''
sS'layer'
p3
S'/home/chiinna/Desktop/linux_web2py/applications/Musiclibrary/views/default/index.html'
p4
sS'code'
p5
S'response.write(\'<!DOCTYPE html PUBLIC "-//W3C//DTD XHTML 1.0 Strict//EN" "http://www.w3.org/TR/xhtml1/DTD/xhtml1-strict.dtd">\\n<html xmlns="http://www.w3.org/1999/xhtml">\\n<head>\\n<meta http-equiv="content-type" content="text/html; charset=utf-8" />\\n<title>RAINBOW</title>\\n    \',escape=False)\nresponse.files.append(URL(request.application,\'static\',\'style.css\'))\nresponse.write(\'\\n    \',escape=False)\nresponse.files.insert(0,URL(r=request,c=\'static\',f=\'jquery.js\'))\nresponse.files.insert(1,URL(r=request,c=\'static\',f=\'calendar.css\'))\nresponse.files.insert(2,URL(r=request,c=\'static\',f=\'calendar.js\'))\nfor _item in response.meta or []:\n    response.write(\'\\n     <meta name="\',escape=False)\n    response.write(_item)\n    response.write(\'" content="\',escape=False)\n    response.write(response.meta[_item])\n    response.write(\'" />\',escape=False)\n    pass\nfor _k,_file in enumerate(response.files or []):\n    if _file in response.files[:_k]:\n        continue\n    elif _file[-4:].lower()==\'.css\':\n        response.write(\'\\n     <link href="\',escape=False)\n        response.write(_file)\n        response.write(\'" rel="stylesheet" type="text/css" charset="utf-8" />\',escape=False)\n    elif _file[-3:].lower()==\'.js\':\n        response.write(\'\\n     <script src="\',escape=False)\n        response.write(_file)\n        response.write(\'" type="text/javascript"></script>\',escape=False)\n        pass\n    pass\nresponse.write(\'\\n<script type="text/javascript"><!--\\nfunction popup(url) {\\n  newwindow=window.open(url,\\\'name\\\',\\\'height=400,width=600\\\');\\n  if (window.focus) newwindow.focus();\\n  return false;\\n}\\nfunction collapse(id) { jQuery(\\\'#\\\'+id).slideToggle(); }\\nfunction fade(id,value) { if(value>0) jQuery(\\\'#\\\'+id).hide().fadeIn(\\\'slow\\\'); else jQuery(\\\'#\\\'+id).show().fadeOut(\\\'slow\\\'); }\\nfunction ajax(u,s,t) {\\n  var query="";\\n  for(i=0; i<s.length; i++) { \\n     if(i>0) query=query+"&";\\n     query=query+encodeURIComponent(s[i])+"="+encodeURIComponent(document.getElementById(s[i]).value);\\n  }\\n  jQuery.ajax({type: "POST", url: u, data: query, success: function(msg) { if(t==\\\':eval\\\') eval(msg); else document.getElementById(t).innerHTML=msg; } });  \\n}\\nString.prototype.reverse = function () { return this.split(\\\'\\\').reverse().join(\\\'\\\');};\\nfunction web2py_ajax_init() {\\n  jQuery(\\\'.hidden\\\').hide();\\n  jQuery(\\\'.error\\\').hide().slideDown(\\\'slow\\\');\\n  jQuery(\\\'.flash\\\').click(function() { jQuery(this).fadeOut(\\\'slow\\\'); return false; });\\n  jQuery(\\\'input.integer\\\').keyup(function(){this.value=this.value.reverse().replace(/[^0-9\\\\-]|\\\\-(?=.)/g,\\\'\\\').reverse();});\\n  jQuery(\\\'input.double\\\').keyup(function(){this.value=this.value.reverse().replace(/[^0-9\\\\-\\\\.]|[\\\\-](?=.)|[\\\\.](?=[0-9]*[\\\\.])/g,\\\'\\\').reverse();});\\n  jQuery("input[type=\\\'checkbox\\\'].delete").each(function(){jQuery(this).click(function() { if(this.checked) if(!confirm("\',escape=False)\nresponse.write(T(\'Sure you want to delete this object?\'))\nresponse.write(\'")) this.checked=false; });});\\n  try {jQuery("input.date").focus( function() {Calendar.setup({\\n     inputField:this.id, ifFormat:"\',escape=False)\nresponse.write(T(\'%Y-%m-%d\'))\nresponse.write(\'", showsTime:false\\n  }); }); } catch(e) {};\\n  try { jQuery("input.datetime").focus( function() {Calendar.setup({\\n     inputField:this.id, ifFormat:"\',escape=False)\nresponse.write(T(\'%Y-%m-%d %H:%M:%S\'))\nresponse.write(\'", showsTime: true,timeFormat: "24"\\n  }); }); } catch(e) {};\\n  try { jQuery("input.time").clockpick({\\n      starthour:0, endhour:23, showminutes:true, military:true\\n  }); } catch(e) {};\\n};\\njQuery(document).ready(function(){\\n   jQuery(\\\'.flash\\\').hide();\\n   if(jQuery(\\\'.flash\\\').html()!=\\\'\\\') jQuery(\\\'.flash\\\').slideDown(\\\'slow\\\');\\n   web2py_ajax_init();});\\n\\nfunction web2py_trap_form(action,target) {\\n   jQuery(\\\'#\\\'+target+\\\' form\\\').each(function(i){\\n      var form=jQuery(this);\\n      jQuery(\\\':submit,.submit\\\',this).click(function(){\\n         jQuery(\\\'.flash\\\').hide().html(\\\'\\\');\\n         web2py_ajax_page(\\\'post\\\',action,form.serialize(),target);\\n         return false;\\n      });\\n   });\\n}\\nfunction web2py_ajax_page(method,action,data,target) {\\n  jQuery.ajax({\\\'type\\\':method,\\\'url\\\':action,\\\'data\\\':data,\\n    \\\'beforeSend\\\':function(xhr){\\n      xhr.setRequestHeader(\\\'web2py-component-location\\\',document.location);\\n      xhr.setRequestHeader(\\\'web2py-component-element\\\',target);},\\n    \\\'complete\\\':function(xhr,text){\\n      command=xhr.getResponseHeader(\\\'web2py-component-command\\\');\\n      if(command) eval(command);\\n      flash=xhr.getResponseHeader(\\\'web2py-component-flash\\\');\\n      if(flash) jQuery(\\\'.flash\\\').html(flash).slideDown();\\n      },\\n    \\\'success\\\': function(text) {\\n      jQuery(\\\'#\\\'+target).html(text);\\n      web2py_trap_form(action,target);\\n      web2py_ajax_init();\\n      }\\n    });\\n}\\nfunction web2py_component(action,target) {\\n    jQuery(document).ready(function(){ web2py_ajax_page(\\\'get\\\',action,null,target); });\\n}\\n//--></script>\\n\\n    <script type="text/javascript" src="/Musiclibrary/static/jquery.js"></script>\\n    <script type="text/javascript" src="/Musiclibrary/static/menu.js"></script>\\n    <script type="text/javascript" src="/Musiclibrary/static/js/jquery.js"></script>\\n    <script type="text/javascript" src="/Musiclibrary/static/js/webwidget_slideshow_common.js"></script>\\n    <script language="javascript" type="text/javascript">\\n$(function() {\\n$("#webwidget_slideshow_common").webwidget_slideshow_common({\\nslideshow_transition_effect: \\\'fade_in\\\',//option: slide_left,slide_down,fade_in\\nslideshow_time_interval: \\\'2000\\\',\\nslideshow_window_width: \\\'150\\\',\\nslideshow_window_height: \\\'150\\\',\\nslideshow_border_style: \\\'hidden\\\',//option: dashed dotted double groove hidden inset none outset ridge solid\\nslideshow_border_size: \\\'0\\\',\\nslideshow_border_color: \\\'#000\\\',\\nslideshow_border_radius: \\\'5\\\',\\nslideshow_padding_size: \\\'10\\\',\\nsoldeshow_background_color: \\\'#fff\\\'\\n});\\n});\\n</script>\\n\\n</head>\\n<body>\\n<!-- start header -->\\n<div id="header">\\n</div>\\n<div id="logo">\\n    <h1><a href="#">RAINBOW</a></h1>\\n    <h2>Enjoy the colours of music</h2>\\n    </div>\\n<!-- end header -->\\n<hr />\\n<!-- start page -->\\n<div id="page">\\n\\n\\n    <div id="menu">\\n        <ul class="menu">\\n            <li><a href="#" class="parent"><span>Home</span></a>\\n                <div><ul>\\n                    <li><a href="#" class="parent"><span>Sub Item 1</span></a>\\n                        <div><ul>\\n                            <li><a href="#" class="parent"><span>Sub Item 1.1</span></a>\\n                                <div><ul>\\n                                <li><a href="#"><span>Sub Item 1.1.1</span></a></li>\\n                                <li><a href="#"><span>Sub Item 1.1.2</span></a></li>\\n                                </ul></div>\\n                            </li>\\n                            <li><a href="#"><span>Sub Item 1.2</span></a></li>\\n                            <li><a href="#"><span>Sub Item 1.3</span></a></li>\\n                            <li><a href="#"><span>Sub Item 1.4</span></a></li>\\n                            <li><a href="#"><span>Sub Item 1.5</span></a></li>\\n                            <li><a href="#"><span>Sub Item 1.6</span></a></li>\\n                            <li><a href="#" class="parent"><span>Sub Item 1.7</span></a>\\n                                <div><ul>\\n                                <li><a href="#"><span>Sub Item 1.7.1</span></a></li>\\n                                <li><a href="#"><span>Sub Item 1.7.2</span></a></li>\\n                                </ul></div>\\n                            </li>\\n                        </ul></div>\\n                    </li>\\n                    <li><a href="#"><span>Sub Item 2</span></a></li>\\n                    <li><a href="#"><span>Sub Item 3</span></a></li>\\n                </ul></div>\\n            </li>\\n            <li><a href="#"><span>Product Info</span></a>\\n                <div><ul>\\n                    <li><a href="#" class="parent"><span>Sub Item 1</span></a>\\n                        <div><ul>\\n                        <li><a href="#"><span>Sub Item 1.1</span></a></li>\\n                        <li><a href="#"><span>Sub Item 1.2</span></a></li>\\n                        </ul></div>\\n                    </li>\\n                    <li><a href="#" class="parent"><span>Sub Item 2</span></a>\\n                        <div><ul>\\n                        <li><a href="#"><span>Sub Item 2.1</span></a></li>\\n                        <li><a href="#"><span>Sub Item 2.2</span></a></li>\\n                        </ul></div>\\n                    </li>\\n                    <li><a href="#"><span>Sub Item 3</span></a></li>\\n                    <li><a href="#"><span>Sub Item 4</span></a></li>\\n                    <li><a href="#"><span>Sub Item 5</span></a></li>\\n                    <li><a href="#"><span>Sub Item 6</span></a></li>\\n                    <li><a href="#"><span>Sub Item 7</span></a></li>\\n                </ul></div>\\n            </li>\\n            <li><a href="#"><span>Help</span></a></li>\\n            <li class="last"><a href="#"><span>Contacts</span></a></li>\\n        </ul>\\n    </div>\\n\\n\\n\\n    <!-- start content -->\\n    <div id="content">\\n        <div class="post">\\n           \\n             <h1 class="title"><a href="#">Welcome to Rainbow Site</a></h1>\\n            <div class="entry">\\n                \\n<h1 align=\\\'center\\\' class=\\\'title\\\'>WELCOME \',escape=False)\nresponse.write(firstname[0].first_name)\nresponse.write(\' </h1>\\n<table border=\\\'0\\\'>\\n<tr>\\n<td width="10%">\\n<p align=\\\'right\\\'><img src=\',escape=False)\nresponse.write(URL(r=request, c=\'default\', f=\'download\', args=[file1[0].file]))\nresponse.write(\'  height="100" width="100"/></p>\\n<p align=\\\'right\\\'><u>FirstName</u>:\',escape=False)\nresponse.write(firstname[0].first_name)\nresponse.write("</p>\\n<p align=\'right\'><u>LastName</u>:",escape=False)\nresponse.write(firstname[0].last_name)\nresponse.write("</p>\\n<p align=\'right\'><u>Email-id</u>:",escape=False)\nresponse.write(firstname[0].email)\nresponse.write(\'</p>\\n<br />\\n</td>\\n<td width="45%">\\n<h2 align=\\\'center\\\'><u>My playsits</u></h2>\\n\',escape=False)\nfor i in form:\n    response.write(\'\\n    <p align="center"><a href=\',escape=False)\n    response.write(URL(r=request,f="playlistsongs",args=i.id))\n    response.write(\'>\',escape=False)\n    response.write(i.name)\n    response.write(\'</a></p><br />\\n\',escape=False)\n    pass\nresponse.write(\'\\n</td>\\n<td><table>\\n<tr><td><p ><a href=\',escape=False)\nresponse.write(URL(r=request,f="upload"))\nresponse.write(\'>UPLOAD A SONG</a></p></td>\\n<td> \\n</tr>\\n\\n  \\n</table>\\n</td>\\n</tr>\\n</table>\\n<script type="text/javascript">\\njQuery(document).ready(function(){ \\n  jQuery("#list").jqGrid({\\n    url:\\\'\',escape=False)\nresponse.write(URL(r=request,f=\'call\',args=[\'json\',\'get_rows\']))\nresponse.write(\'\\\',\\n    data: "{}",\\n    datatype: \\\'json\\\',\\n    mtype: \\\'GET\\\',\\n    contentType: "application/json; charset=utf-8",\\n    complete: function(jsondata, stat) {\\n        if (stat == "success") {\\n            var thegrid = jQuery("#list")[0];\\n            thegrid.addJSONData(JSON.parse(jsondata.responseText).d);\\n        }\\n    },\\n    colNames:[\\\'ID\\\',\\\'Name\\\',\\\'Artist\\\'],\\n    colModel :[ \\n      {name:\\\'id\\\',index:\\\'id\\\', width:55}, \\n      {name:\\\'name\\\', index:\\\'name\\\'}, \\n      {name:\\\'artist\\\', index:\\\'artist\\\'}\\n    ],\\n    pager: \\\'#pager\\\',\\n    rowNum:10,\\n    rowList:[10,20,30],\\n    sortname: \\\'name\\\',\\n    sortorder: \\\'desc\\\',\\n    viewrecords: true,\\n    caption: \\\'Test Grid\\\'\\n  }); \\n}); \\n</script>\\n\\n<table id="list"></table> \\n<div id="pager"></div>\\n\\n</body>\\n\\n            </div>\\n            \\n        </div>\\n    </div>\\n    \',escape=False)\nform12=db(db.album.language==\'1\').select()\nresponse.write(\'\\n    \',escape=False)\nform13=db(db.album.language==\'2\').select()\nresponse.write(\'\\n    \',escape=False)\nform14=db(db.album.language==\'3\').select()\nresponse.write(\'\\n    <!-- end content -->\\n    <!-- start sidebar two -->\\n    <div id="sidebar2" class="sidebar">\\n<div id="webwidget_slideshow_common" class="webwidget_slideshow_common">\\n<ul>\\n\',escape=False)\nfor i in form12:\n    response.write(\'\\n<li><a style="line-height:17px;color:#FFF;text-decoration:none;" href="\',escape=False)\n    response.write(URL(r=request,f="albums",args=[i.id])\n    response.write(\'" title="\',escape=False)\n    response.write(i.name)\n    response.write(\'"><img border="0" src="\',escape=False)\n    response.write(URL(r=request, c=\'default\', f=\'download\', args=[i.image]))\n    response.write(\'" width="130" height="110" /><br/>Title1</a></li>\\n\',escape=False)\n    pass\nresponse.write(\'\\n</ul>\\n<ul>\\n\',escape=False)\nfor i in form13:\n    response.write(\'\\n<li><a style="line-height:17px;color:#FFF;text-decoration:none;" href="\',escape=False)\n    response.write(URL(r=request,f="albums",args=i.id))\n    response.write(\'" title="\',escape=False)\n    response.write(i.name)\n    response.write(\'"><img border="0" src="\',escape=False)\n    response.write(URL(r=request, c=\'default\', f=\'download\', args=[i.image]))\n    response.write(\'" width="130" height="110" /><br/>Title1</a></li>\\n\',escape=False)\n    pass\nresponse.write(\'\\n</ul>\\n<div style="clear: both"></div>\\n</div>\\n    </div>\\n    <!-- end sidebar two -->\\n    <div style="clear: both;">&nbsp;</div>\\n</div>\\n<!-- end page -->\\n<hr />\\n<!-- start footer -->\\n<div id="footer">\\n    \\n</div>\\n<!-- end footer -->\\n</body>\\n</html>\\n\',escape=False)'
p6
sS'traceback'
p7
S'Traceback (most recent call last):\n  File "/home/chiinna/Desktop/linux_web2py/gluon/restricted.py", line 171, in restricted\n    ccode = compile(code.replace(\'\\r\\n\', \'\\n\'), layer, \'exec\')\n  File "/home/chiinna/Desktop/linux_web2py/applications/Musiclibrary/views/default/index.html", line 65\n    response.write(\'" title="\',escape=False)\n           ^\nSyntaxError: invalid syntax\n'
p8
s.