(dp1
S'output'
p2
S''
sS'layer'
p3
S'/home/chiinna/Desktop/linux_web2py/applications/Musiclibrary/views/generic.html'
p4
sS'code'
p5
S'response.write(\'<!DOCTYPE html PUBLIC "-//W3C//DTD XHTML 1.0 Strict//EN" "http://www.w3.org/TR/xhtml1/DTD/xhtml1-strict.dtd">\\n<html xmlns="http://www.w3.org/1999/xhtml">\\n<head>\\n<meta http-equiv="content-type" content="text/html; charset=utf-8" />\\n<title>Free Web Templates</title>\\n    \',escape=False)\nresponse.files.append(URL(request.application,\'static\',\'style.css\'))\nresponse.write(\'\\n    \',escape=False)\nresponse.files.insert(0,URL(r=request,c=\'static\',f=\'jquery.js\'))\nresponse.files.insert(1,URL(r=request,c=\'static\',f=\'calendar.css\'))\nresponse.files.insert(2,URL(r=request,c=\'static\',f=\'calendar.js\'))\nfor _item in response.meta or []:\n    response.write(\'\\n     <meta name="\',escape=False)\n    response.write(_item)\n    response.write(\'" content="\',escape=False)\n    response.write(response.meta[_item])\n    response.write(\'" />\',escape=False)\n    pass\nfor _k,_file in enumerate(response.files or []):\n    if _file in response.files[:_k]:\n        continue\n    elif _file[-4:].lower()==\'.css\':\n        response.write(\'\\n     <link href="\',escape=False)\n        response.write(_file)\n        response.write(\'" rel="stylesheet" type="text/css" charset="utf-8" />\',escape=False)\n    elif _file[-3:].lower()==\'.js\':\n        response.write(\'\\n     <script src="\',escape=False)\n        response.write(_file)\n        response.write(\'" type="text/javascript"></script>\',escape=False)\n        pass\n    pass\nresponse.write(\'\\n<script type="text/javascript"><!--\\nfunction popup(url) {\\n  newwindow=window.open(url,\\\'name\\\',\\\'height=400,width=600\\\');\\n  if (window.focus) newwindow.focus();\\n  return false;\\n}\\nfunction collapse(id) { jQuery(\\\'#\\\'+id).slideToggle(); }\\nfunction fade(id,value) { if(value>0) jQuery(\\\'#\\\'+id).hide().fadeIn(\\\'slow\\\'); else jQuery(\\\'#\\\'+id).show().fadeOut(\\\'slow\\\'); }\\nfunction ajax(u,s,t) {\\n  var query="";\\n  for(i=0; i<s.length; i++) { \\n     if(i>0) query=query+"&";\\n     query=query+encodeURIComponent(s[i])+"="+encodeURIComponent(document.getElementById(s[i]).value);\\n  }\\n  jQuery.ajax({type: "POST", url: u, data: query, success: function(msg) { if(t==\\\':eval\\\') eval(msg); else document.getElementById(t).innerHTML=msg; } });  \\n}\\nString.prototype.reverse = function () { return this.split(\\\'\\\').reverse().join(\\\'\\\');};\\nfunction web2py_ajax_init() {\\n  jQuery(\\\'.hidden\\\').hide();\\n  jQuery(\\\'.error\\\').hide().slideDown(\\\'slow\\\');\\n  jQuery(\\\'.flash\\\').click(function() { jQuery(this).fadeOut(\\\'slow\\\'); return false; });\\n  jQuery(\\\'input.integer\\\').keyup(function(){this.value=this.value.reverse().replace(/[^0-9\\\\-]|\\\\-(?=.)/g,\\\'\\\').reverse();});\\n  jQuery(\\\'input.double\\\').keyup(function(){this.value=this.value.reverse().replace(/[^0-9\\\\-\\\\.]|[\\\\-](?=.)|[\\\\.](?=[0-9]*[\\\\.])/g,\\\'\\\').reverse();});\\n  jQuery("input[type=\\\'checkbox\\\'].delete").each(function(){jQuery(this).click(function() { if(this.checked) if(!confirm("\',escape=False)\nresponse.write(T(\'Sure you want to delete this object?\'))\nresponse.write(\'")) this.checked=false; });});\\n  try {jQuery("input.date").focus( function() {Calendar.setup({\\n     inputField:this.id, ifFormat:"\',escape=False)\nresponse.write(T(\'%Y-%m-%d\'))\nresponse.write(\'", showsTime:false\\n  }); }); } catch(e) {};\\n  try { jQuery("input.datetime").focus( function() {Calendar.setup({\\n     inputField:this.id, ifFormat:"\',escape=False)\nresponse.write(T(\'%Y-%m-%d %H:%M:%S\'))\nresponse.write(\'", showsTime: true,timeFormat: "24"\\n  }); }); } catch(e) {};\\n  try { jQuery("input.time").clockpick({\\n      starthour:0, endhour:23, showminutes:true, military:true\\n  }); } catch(e) {};\\n};\\njQuery(document).ready(function(){\\n   jQuery(\\\'.flash\\\').hide();\\n   if(jQuery(\\\'.flash\\\').html()!=\\\'\\\') jQuery(\\\'.flash\\\').slideDown(\\\'slow\\\');\\n   web2py_ajax_init();});\\n\\nfunction web2py_trap_form(action,target) {\\n   jQuery(\\\'#\\\'+target+\\\' form\\\').each(function(i){\\n      var form=jQuery(this);\\n      jQuery(\\\':submit,.submit\\\',this).click(function(){\\n         jQuery(\\\'.flash\\\').hide().html(\\\'\\\');\\n         web2py_ajax_page(\\\'post\\\',action,form.serialize(),target);\\n         return false;\\n      });\\n   });\\n}\\nfunction web2py_ajax_page(method,action,data,target) {\\n  jQuery.ajax({\\\'type\\\':method,\\\'url\\\':action,\\\'data\\\':data,\\n    \\\'beforeSend\\\':function(xhr){\\n      xhr.setRequestHeader(\\\'web2py-component-location\\\',document.location);\\n      xhr.setRequestHeader(\\\'web2py-component-element\\\',target);},\\n    \\\'complete\\\':function(xhr,text){\\n      command=xhr.getResponseHeader(\\\'web2py-component-command\\\');\\n      if(command) eval(command);\\n      flash=xhr.getResponseHeader(\\\'web2py-component-flash\\\');\\n      if(flash) jQuery(\\\'.flash\\\').html(flash).slideDown();\\n      },\\n    \\\'success\\\': function(text) {\\n      jQuery(\\\'#\\\'+target).html(text);\\n      web2py_trap_form(action,target);\\n      web2py_ajax_init();\\n      }\\n    });\\n}\\nfunction web2py_component(action,target) {\\n    jQuery(document).ready(function(){ web2py_ajax_page(\\\'get\\\',action,null,target); });\\n}\\n//--></script>\\n\\n</head>\\n<body>\\n<!-- start header -->\\n<div id="header">\\n</div>\\n<div id="logo">\\n    <h1><a href="#">RAINBOW</a></h1>\\n    <h2>Enjoy the colours of music</h2>\\n    </div>\\n<!-- end header -->\\n<hr />\\n<!-- start page -->\\n<div id="page">\\n    <div id="menu">\\n        <ul>\\n            <li class="current_page_item"><a href="index">home</a></li>\\n            <li><a href="#">My Playlists</a></li>\\n            <li><a href="#">gallery</a></li>\\n            <li><a href="#">blog</a></li>\\n            <li><a href="#">contact</a></li>\\n        </ul>\\n    </div>\\n    <!-- start content -->\\n    <div id="content">\\n        <div class="post">\\n            <h1 class="title"><a href="#">Welcom to Rainbow Site</a></h1>\\n            \\n            <div class="entry">\\n                \\n\',escape=False)\n"""\\n\\nYou should not modify this file. \\nIt is used as default when a view is not provided for your controllers\\n\\n"""\nresponse.write(\'\\n\\n\',escape=False)\nresponse.write(BEAUTIFY(response._vars))\nresponse.write(\'\\n\\n<button onclick="document.location=\\\'\',escape=False)\nresponse.write(URL("admin","default","design",args=request.application))\nresponse.write(\'\\\'">admin</button>\\n<button onclick="jQuery(\\\'#request\\\').slideToggle()">request</button>\\n<div class="hidden" id="request"><h2>request</h2>\',escape=False)\nresponse.write(BEAUTIFY(request))\nresponse.write(\'</div>\\n<button onclick="jQuery(\\\'#session\\\').slideToggle()">session</button>\\n<div class="hidden" id="session"><h2>session</h2>\',escape=False)\nresponse.write(BEAUTIFY(session))\nresponse.write(\'</div>\\n<button onclick="jQuery(\\\'#response\\\').slideToggle()">response</button>\\n<div class="hidden" id="response"><h2>response</h2>\',escape=False)\nresponse.write(BEAUTIFY(response))\nresponse.write(\'</div>\\n<script>jQuery(\\\'.hidden\\\').hide();</script>\\n\\n            </div>\\n            \\n        </div>\\n    </div>\\n    <!-- end content -->\\n    <!-- start sidebar two -->\\n    <div id="sidebar2" class="sidebar">\\n        <ul>\\n            <li>\\n                <h2>rainbow category</h2>\\n                <ul>\\n                    <li><a href="#">Rainbow category 1</a></li>\\n                    <li><a href="#">Rainbow category 2</a></li>\\n                    <li><a href="#">Rainbow category 3</a></li>\\n                    <li><a href="#">Rainbow category 4</a></li>\\n                    <li><a href="#">Rainbow category 5</a></li>\\n                    <li><a href="#">Rainbow category 6</a></li>\\n                </ul>\\n            </li>\\n            <li>\\n                <h2>gallery</h2>\\n                <ul>\\n                    <li><a href="#">Rainbow gallery 1</a> (23)</li>\\n                    <li><a href="#">Rainbow gallery 2</a> (345)</li>\\n                    <li><a href="#">Rainbow gallery 3</a> (67)</li>\\n                    <li><a href="#">Rainbow gallery 4</a> (12)</li>\\n                    <li><a href="#">Rainbow gallery 5</a> (78)</li>\\n                    <li><a href="#">Rainbow gallery 6</a> (2)</li>\\n                </ul>\\n            </li>\\n            <li>\\n                <h2>our friends</h2>\\n                <ul>\\n                    <li><a href="#">www.yourfriend.com</a></li>\\n                    <li><a href="#">www.yourfriend.com</a></li>\\n                    <li><a href="#">www.yourfriend.com</a></li>\\n                    <li><a href="#">www.yourfriend.com</a></li>\\n                    <li><a href="#">www.yourfriend.com</a></li>\\n                    <li><a href="#">www.yourfriend.com</a></li>\\n                </ul>\\n            </li>\\n        </ul>\\n    </div>\\n    <!-- end sidebar two -->\\n    <div style="clear: both;">&nbsp;</div>\\n</div>\\n<!-- end page -->\\n<hr />\\n<!-- start footer -->\\n<div id="footer">\\n    \\n</div>\\n<!-- end footer -->\\n</body>\\n</html>\\n\',escape=False)'
p6
sS'traceback'
p7
S'Traceback (most recent call last):\n  File "/home/chiinna/Desktop/linux_web2py/gluon/restricted.py", line 173, in restricted\n    exec ccode in environment\n  File "/home/chiinna/Desktop/linux_web2py/applications/Musiclibrary/views/generic.html", line 36, in <module>\n  File "/home/chiinna/Desktop/linux_web2py/gluon/globals.py", line 105, in write\n    self.body.write(xmlescape(data))\n  File "/home/chiinna/Desktop/linux_web2py/gluon/html.py", line 99, in xmlescape\n    return data.xml()\n  File "/home/chiinna/Desktop/linux_web2py/gluon/html.py", line 520, in xml\n    (fa, co) = self._xml()\n  File "/home/chiinna/Desktop/linux_web2py/gluon/html.py", line 511, in _xml\n    self.components])\n  File "/home/chiinna/Desktop/linux_web2py/gluon/html.py", line 99, in xmlescape\n    return data.xml()\n  File "/home/chiinna/Desktop/linux_web2py/gluon/html.py", line 520, in xml\n    (fa, co) = self._xml()\n  File "/home/chiinna/Desktop/linux_web2py/gluon/html.py", line 511, in _xml\n    self.components])\n  File "/home/chiinna/Desktop/linux_web2py/gluon/html.py", line 99, in xmlescape\n    return data.xml()\n  File "/home/chiinna/Desktop/linux_web2py/gluon/html.py", line 520, in xml\n    (fa, co) = self._xml()\n  File "/home/chiinna/Desktop/linux_web2py/gluon/html.py", line 511, in _xml\n    self.components])\n  File "/home/chiinna/Desktop/linux_web2py/gluon/html.py", line 99, in xmlescape\n    return data.xml()\n  File "/home/chiinna/Desktop/linux_web2py/gluon/html.py", line 520, in xml\n    (fa, co) = self._xml()\n  File "/home/chiinna/Desktop/linux_web2py/gluon/html.py", line 511, in _xml\n    self.components])\n  File "/home/chiinna/Desktop/linux_web2py/gluon/html.py", line 99, in xmlescape\n    return data.xml()\n  File "/home/chiinna/Desktop/linux_web2py/gluon/html.py", line 520, in xml\n    (fa, co) = self._xml()\n  File "/home/chiinna/Desktop/linux_web2py/gluon/html.py", line 511, in _xml\n    self.components])\n  File "/home/chiinna/Desktop/linux_web2py/gluon/html.py", line 99, in xmlescape\n    return data.xml()\n  File "/home/chiinna/Desktop/linux_web2py/gluon/sql.py", line 3523, in xml\n    return sqlhtml.SQLTABLE(self).xml()\n  File "/home/chiinna/Desktop/linux_web2py/gluon/html.py", line 520, in xml\n    (fa, co) = self._xml()\n  File "/home/chiinna/Desktop/linux_web2py/gluon/html.py", line 511, in _xml\n    self.components])\n  File "/home/chiinna/Desktop/linux_web2py/gluon/html.py", line 99, in xmlescape\n    return data.xml()\n  File "/home/chiinna/Desktop/linux_web2py/gluon/html.py", line 520, in xml\n    (fa, co) = self._xml()\n  File "/home/chiinna/Desktop/linux_web2py/gluon/html.py", line 511, in _xml\n    self.components])\n  File "/home/chiinna/Desktop/linux_web2py/gluon/html.py", line 99, in xmlescape\n    return data.xml()\n  File "/home/chiinna/Desktop/linux_web2py/gluon/html.py", line 520, in xml\n    (fa, co) = self._xml()\n  File "/home/chiinna/Desktop/linux_web2py/gluon/html.py", line 511, in _xml\n    self.components])\n  File "/home/chiinna/Desktop/linux_web2py/gluon/html.py", line 99, in xmlescape\n    return data.xml()\n  File "/home/chiinna/Desktop/linux_web2py/gluon/html.py", line 520, in xml\n    (fa, co) = self._xml()\n  File "/home/chiinna/Desktop/linux_web2py/gluon/html.py", line 511, in _xml\n    self.components])\n  File "/home/chiinna/Desktop/linux_web2py/gluon/html.py", line 99, in xmlescape\n    return data.xml()\n  File "/home/chiinna/Desktop/linux_web2py/gluon/sql.py", line 1433, in __getattr__\n    self.__allocate()\n  File "/home/chiinna/Desktop/linux_web2py/gluon/sql.py", line 1428, in __allocate\n    raise Exception, "undefined record"\nException: undefined record\n'
p8
s.