(dp1
S'output'
p2
S''
sS'layer'
p3
S'/home/chiinna/Desktop/linux_web2py/applications/practice/controllers/default.py'
p4
sS'code'
p5
S'# -*- coding: utf-8 -*- \n\n#########################################################################\n## This is a samples controller\n## - index is the default action of any application\n## - user is required for authentication and authorization\n## - download is for downloading files uploaded in the db (does streaming)\n## - call exposes all registered services (none by default)\n#########################################################################  \n\ndef index():\n    """\n    example action using the internationalization operator T and flash\n    rendered by views/default/index.html or views/generic.html\n    """\n    response.flash = T(\'Welcome to Your Music Library\')\n    file1=db().select(db.uploadpic.ALL)\n    form=db(db.playlist.userid==auth.user_id).select()\n    firstname=db().select(db.auth_user.ALL)\n    #lastname=auth.user_last_name\n    return dict(firstname=firstname,message=T(\'Hello World\'),file1=file1,form=form)\n\n\ndef user():\n    """\n    exposes:\n    http://..../[app]/default/user/login \n    http://..../[app]/default/user/logout\n    http://..../[app]/default/user/register\n    http://..../[app]/default/user/profile\n    http://..../[app]/default/user/retrieve_password\n    http://..../[app]/default/user/change_password\n    use @auth.requires_login()\n        @auth.requires_membership(\'group name\')\n        @auth.requires_permission(\'read\',\'table name\',record_id)\n    to decorate functions that need access control\n    """\n    return dict(form=auth())\n\n\ndef download():\n    """\n    allows downloading of uploaded files\n    http://..../[app]/default/download/[filename]\n    """\n    return response.download(request,db)\n\n\ndef call():\n    """\n    exposes services. for example:\n    http://..../[app]/default/call/jsonrpc\n    decorate with @services.jsonrpc the functions to expose\n    supports xml, json, xmlrpc, jsonrpc, amfrpc, rss, csv\n    """\n    session.forget()\n    return service()\ndef playlistsongs():\n    k=request.args(0)\n    song=db(db.like.plylist==k).select()\n    #row=db().select(db.like.ALL, db.songs.ALL, left=db.like.on(db.songs.id==db.like.songid))\n    song1=db().select(db.songs.ALL)\n    return(dict(row=song,song1=song1,k=k))\ndef rating():\n    k=request.args(0)\n    k2=request.args(1)\n    k1=request.args(2)\n#    form=SQLFORM(db.ratings)\n    form=db(db.ratings.userid==auth.user_id).select()\n    if(form):\n       form[0].update_record(rating=k2)\n    if(form==None):\n       db.ratings.insert(userid=auth.user_id)\n       db.ratings.insert(rating=k2)\n       db.ratings.insert(songid=k)\n       session.flash = \'rated\'\n    redirect(URL(r=request,f="playlistsongs",args=k1))\n    return(dict(form=form))\ndef upload():\n    form=SQLFORM(db.songs)\n    form.vars.userid=auth.user_id\n    if form.accepts(request.vars,session):\n        k=form.vars.id\n        form=db(db.songs.id==request.args(0)).select()\n        from mutagen.mp3 import MP3\n        from mutagen.easyid3 import EasyID3\n        m = MP3(\'/home/chiinna/x.mp3\', ID3=EasyID3)\n        form[0].update_record(artist=m[\'artist\'][0])\n        form[0].update_record(name= m[\'title\'][0])\n        form[0].update_record(datetime1=m[\'date\'][0])\n        form[0].update_record(duration= m.info.length)\n        redirect(URL(r=request,f="test1",args=k))\n    return(dict(form=form))\ndef test1():\n    form=db(db.songs.id==request.args(0)).select()\n    return(dict(k=request.args(0),form=form))\n\nresponse._vars=response._caller(upload)\n'
p6
sS'traceback'
p7
S'Traceback (most recent call last):\n  File "/home/chiinna/Desktop/linux_web2py/gluon/restricted.py", line 173, in restricted\n    exec ccode in environment\n  File "/home/chiinna/Desktop/linux_web2py/applications/practice/controllers/default.py", line 98, in <module>\n  File "/home/chiinna/Desktop/linux_web2py/gluon/globals.py", line 96, in <lambda>\n    self._caller = lambda f: f()\n  File "/home/chiinna/Desktop/linux_web2py/applications/practice/controllers/default.py", line 88, in upload\n    form[0].update_record(artist=m[\'artist\'][0])\n  File "/home/chiinna/Desktop/linux_web2py/gluon/sql.py", line 3395, in __getitem__\n    row = self.records[i]\nIndexError: list index out of range\n'
p8
s.