(dp1
S'output'
p2
S''
sS'layer'
p3
S'/home/chiinna/Desktop/web2py/applications/practice/models/menu.py'
p4
sS'code'
p5
S"# -*- coding: utf-8 -*- \n\n#########################################################################\n## Customize your APP title, subtitle and menus here\n#########################################################################\n\nresponse.title = request.application\nresponse.subtitle = T('customize me!')\n\n##########################################\n## this is the main application menu\n## add/remove items as required\n##########################################\n\nresponse.menu = None\n#[\n #   [T('Index'), False, \n  #   URL(request.application,'default','index'), []],\n    ]\n\n\n##########################################\n## this is here to provide shortcuts\n## during development. remove in production \n##########################################\n\nresponse.menu_edit=[\n  [T('Edit'), False, URL('admin', 'default', 'design/%s' % request.application),\n   [\n            [T('Controller'), False, \n             URL('admin', 'default', 'edit/%s/controllers/%s.py' \\\n                     % (request.application,request.controller=='appadmin' and\n                        'default' or request.controller))], \n            [T('View'), False, \n             URL('admin', 'default', 'edit/%s/views/%s' \\\n                     % (request.application,response.view))],\n            [T('Layout'), False, \n             URL('admin', 'default', 'edit/%s/views/layout.html' \\\n                     % request.application)],\n            [T('Stylesheet'), False, \n             URL('admin', 'default', 'edit/%s/static/base.css' \\\n                     % request.application)],\n            [T('DB Model'), False, \n             URL('admin', 'default', 'edit/%s/models/db.py' \\\n                     % request.application)],\n            [T('Menu Model'), False, \n             URL('admin', 'default', 'edit/%s/models/menu.py' \\\n                     % request.application)],\n            [T('Database'), False, \n             URL(request.application, 'appadmin', 'index')],\n            ]\n   ],\n  ]\n"
p6
sS'traceback'
p7
S'Traceback (most recent call last):\n  File "/home/chiinna/Desktop/web2py/gluon/restricted.py", line 176, in restricted\n    ccode = compile2(code,layer)\n  File "/home/chiinna/Desktop/web2py/gluon/restricted.py", line 163, in compile2\n    return compile(code.rstrip().replace(\'\\r\\n\',\'\\n\')+\'\\n\', layer, \'exec\')\n  File "/home/chiinna/Desktop/web2py/applications/practice/models/menu.py", line 19\n    ]\n   ^\nIndentationError: unexpected indent\n'
p8
s.